Certificate:
    Data:
        Version: 3 (0x2)
        Serial Number: 1 (0x1)
        Signature Algorithm: sha256WithRSAEncryption
        Issuer: C=US, ST=Maryland, L=Baltimore, O=Test CA, Limited, OU=Server Research Department, CN=Test CA/emailAddress=test@example.com
        Validity
            Not Before: Jun 18 00:56:22 2020 GMT
            Not After : Mar 15 00:56:22 2023 GMT
        Subject: C=US, ST=MD, L=Baltimore, O=Test Server, Limited, CN=localhost
        Subject Public Key Info:
            Public Key Algorithm: rsaEncryption
                RSA Public-Key: (2048 bit)
                Modulus:
                    00:a6:34:9b:c1:2a:d5:d6:87:2e:8b:b7:88:5d:05:
                    04:67:cb:be:71:17:0b:00:62:36:25:2a:d8:11:4d:
                    4d:cc:f4:32:30:bc:fd:95:56:d0:8d:a0:54:17:8b:
                    8d:a1:29:0b:64:8b:d7:53:2c:cd:2c:55:13:d6:e0:
                    55:1a:83:ba:cd:6f:b7:31:ed:d7:4f:c3:1d:7f:57:
                    3a:1a:6d:fa:7c:cb:ff:5a:55:2b:c8:0f:aa:2f:a7:
                    89:9c:da:fb:b4:1b:5c:9d:59:b9:9e:b9:32:7e:2c:
                    a1:98:29:c4:55:67:67:d0:17:a1:c5:9f:90:d8:0f:
                    98:35:fe:5b:c2:b0:93:ed:43:5a:40:55:50:97:32:
                    2f:c3:30:e5:28:96:5e:b3:15:00:da:9f:43:d3:09:
                    81:f0:bc:a8:09:ac:95:02:3d:f0:0c:12:5b:4a:47:
                    65:2f:14:56:5b:e1:16:d1:75:35:87:5c:1f:96:a9:
                    14:f9:b6:5e:7b:4c:76:4f:cd:52:d6:1b:a8:18:5b:
                    96:db:00:ec:97:20:26:32:c4:2a:91:91:fb:99:fc:
                    28:7f:67:dc:26:e4:94:4a:93:aa:ac:7e:90:3b:47:
                    06:64:5f:95:c2:d7:13:f3:25:8a:0e:fa:5f:1f:b8:
                    e7:fe:e4:33:8e:cd:43:9e:2d:c9:c4:10:f6:65:34:
                    56:f5
                Exponent: 65537 (0x10001)
        X509v3 extensions:
            X509v3 Subject Key Identifier: 
                6F:9E:06:D6:98:E9:92:FD:A4:AD:43:7B:5A:5E:D8:D6:8C:91:27:83
            X509v3 Authority Key Identifier: 
                keyid:B5:D3:D8:A2:B6:67:AD:66:19:74:E9:2A:73:EF:C5:7A:8E:F0:D0:B5

            X509v3 Basic Constraints: 
                CA:FALSE
            X509v3 Key Usage: 
                Digital Signature, Key Encipherment
            X509v3 Subject Alternative Name: 
                DNS:localhost, DNS:localhost:5000, DNS:localhsot:9999
            Netscape Comment: 
                OpenSSL Generated Certificate
    Signature Algorithm: sha256WithRSAEncryption
         2e:39:d9:1e:4f:a8:60:49:e5:51:80:3b:96:1a:68:e7:71:a9:
         5c:f3:a4:37:90:82:3f:99:6d:05:f4:f6:56:b3:f9:6d:43:4a:
         85:23:1c:26:a1:47:a5:c2:6f:e8:cf:44:59:a6:47:91:ad:ac:
         f3:ca:1f:13:e3:06:05:93:f3:46:b6:bf:09:61:54:34:38:a0:
         a5:98:bf:03:49:0d:ad:d2:ae:8e:d9:b4:65:7e:4c:76:1c:e9:
         ae:97:c0:90:76:5a:38:35:f8:92:a7:3f:5a:f7:bf:e8:64:40:
         2f:9c:54:57:1e:b4:58:81:16:f0:45:e0:a9:79:c7:a7:12:73:
         b2:02:06:9c:1e:92:a1:16:81:fd:a0:4a:25:e2:f5:d0:52:4b:
         f8:07:61:b0:56:e8:bb:e2:91:b6:da:03:41:b0:26:66:93:fe:
         07:1a:0b:22:0f:d4:a2:ab:9c:ce:d8:b4:d9:7e:ab:ff:f6:5a:
         02:2e:d5:3c:ba:1c:d5:f1:f5:db:11:6d:4b:45:9b:5a:8e:45:
         0d:d7:09:6c:91:aa:cb:dd:16:75:0e:c9:38:b2:d0:1b:3a:5d:
         49:f6:17:33:24:0f:ff:ac:91:06:40:61:09:39:57:ec:64:a8:
         53:4e:00:9f:3c:be:2f:f5:48:63:b0:0f:d7:08:75:65:77:42:
         7d:cc:bc:21:35:00:73:67:37:46:be:d7:e0:cf:f5:8a:77:a1:
         f8:5f:0f:b4:46:d1:bc:0f:d9:47:34:41:14:67:86:14:3d:53:
         91:b0:2b:ef:19:96:8f:92:73:fe:a9:40:05:99:ca:5f:41:27:
         8b:9e:39:c2:5b:0b:a2:29:2c:6a:a1:b6:7d:84:2b:26:3f:20:
         27:e3:66:e4:7b:12:39:a0:38:64:bc:e5:76:b7:3a:e9:05:ad:
         66:2d:bc:44:f2:30:27:6e:dc:57:52:c0:bd:6a:ed:da:f2:51:
         d8:a4:2c:f6:48:9d:58:d1:1d:ee:23:41:8d:4a:6d:fe:9a:bc:
         65:4c:f4:98:f9:f3:b7:06:c5:80:87:2b:bc:bb:6f:c3:ca:44:
         01:7d:08:39:9e:3e:04:f0:1a:a6:e7:35:69:6b:2f:e5:83:59:
         91:9a:aa:76:dc:5b:51:2a:74:97:d0:62:d9:9b:b4:e5:e4:f2:
         87:62:53:7a:07:ce:d6:ed:5e:82:94:25:1a:94:c7:7d:f6:98:
         17:24:5e:b9:fd:29:40:94:d5:99:15:67:ff:a1:13:f2:bd:01:
         54:6a:c6:ab:6e:1f:39:c8:f0:15:3f:7d:de:21:20:96:e4:8c:
         a7:57:7b:62:98:05:41:67:73:b9:94:59:bc:62:25:a0:07:2d:
         81:5e:fa:e8:52:b8:c9:26
-----BEGIN CERTIFICATE-----
MIIFRDCCAyygAwIBAgIBATANBgkqhkiG9w0BAQsFADCBpzELMAkGA1UEBhMCVVMx
ETAPBgNVBAgMCE1hcnlsYW5kMRIwEAYDVQQHDAlCYWx0aW1vcmUxGTAXBgNVBAoM
EFRlc3QgQ0EsIExpbWl0ZWQxIzAhBgNVBAsMGlNlcnZlciBSZXNlYXJjaCBEZXBh
cnRtZW50MRAwDgYDVQQDDAdUZXN0IENBMR8wHQYJKoZIhvcNAQkBFhB0ZXN0QGV4
YW1wbGUuY29tMB4XDTIwMDYxODAwNTYyMloXDTIzMDMxNTAwNTYyMlowYTELMAkG
A1UEBhMCVVMxCzAJBgNVBAgMAk1EMRIwEAYDVQQHDAlCYWx0aW1vcmUxHTAbBgNV
BAoMFFRlc3QgU2VydmVyLCBMaW1pdGVkMRIwEAYDVQQDDAlsb2NhbGhvc3QwggEi
MA0GCSqGSIb3DQEBAQUAA4IBDwAwggEKAoIBAQCmNJvBKtXWhy6Lt4hdBQRny75x
FwsAYjYlKtgRTU3M9DIwvP2VVtCNoFQXi42hKQtki9dTLM0sVRPW4FUag7rNb7cx
7ddPwx1/Vzoabfp8y/9aVSvID6ovp4mc2vu0G1ydWbmeuTJ+LKGYKcRVZ2fQF6HF
n5DYD5g1/lvCsJPtQ1pAVVCXMi/DMOUoll6zFQDan0PTCYHwvKgJrJUCPfAMEltK
R2UvFFZb4RbRdTWHXB+WqRT5tl57THZPzVLWG6gYW5bbAOyXICYyxCqRkfuZ/Ch/
Z9wm5JRKk6qsfpA7RwZkX5XC1xPzJYoO+l8fuOf+5DOOzUOeLcnEEPZlNFb1AgMB
AAGjgb8wgbwwHQYDVR0OBBYEFG+eBtaY6ZL9pK1De1pe2NaMkSeDMB8GA1UdIwQY
MBaAFLXT2KK2Z61mGXTpKnPvxXqO8NC1MAkGA1UdEwQCMAAwCwYDVR0PBAQDAgWg
MDQGA1UdEQQtMCuCCWxvY2FsaG9zdIIObG9jYWxob3N0OjUwMDCCDmxvY2FsaHNv
dDo5OTk5MCwGCWCGSAGG+EIBDQQfFh1PcGVuU1NMIEdlbmVyYXRlZCBDZXJ0aWZp
Y2F0ZTANBgkqhkiG9w0BAQsFAAOCAgEALjnZHk+oYEnlUYA7lhpo53GpXPOkN5CC
P5ltBfT2VrP5bUNKhSMcJqFHpcJv6M9EWaZHka2s88ofE+MGBZPzRra/CWFUNDig
pZi/A0kNrdKujtm0ZX5MdhzprpfAkHZaODX4kqc/Wve/6GRAL5xUVx60WIEW8EXg
qXnHpxJzsgIGnB6SoRaB/aBKJeL10FJL+AdhsFbou+KRttoDQbAmZpP+BxoLIg/U
oquczti02X6r//ZaAi7VPLoc1fH12xFtS0WbWo5FDdcJbJGqy90WdQ7JOLLQGzpd
SfYXMyQP/6yRBkBhCTlX7GSoU04Anzy+L/VIY7AP1wh1ZXdCfcy8ITUAc2c3Rr7X
4M/1ineh+F8PtEbRvA/ZRzRBFGeGFD1TkbAr7xmWj5Jz/qlABZnKX0Eni545wlsL
oiksaqG2fYQrJj8gJ+Nm5HsSOaA4ZLzldrc66QWtZi28RPIwJ27cV1LAvWrt2vJR
2KQs9kidWNEd7iNBjUpt/pq8ZUz0mPnztwbFgIcrvLtvw8pEAX0IOZ4+BPAapuc1
aWsv5YNZkZqqdtxbUSp0l9Bi2Zu05eTyh2JTegfO1u1egpQlGpTHffaYFyReuf0p
QJTVmRVn/6ET8r0BVGrGq24fOcjwFT993iEgluSMp1d7YpgFQWdzuZRZvGIloAct
gV766FK4ySY=
-----END CERTIFICATE-----
